target datalayout = "e-m:e-p270:32:32-p271:32:32-p272:64:64-i64:64-i128:128-f80:128-n8:16:32:64-S128"
target triple = "x86_64-pc-linux-gnu"

%struct.VP8EncIterator = type { i32, i32, ptr, ptr, ptr, ptr, ptr, ptr, ptr, ptr, ptr, [37 x i8], ptr, i32, [9 x i32], [9 x i32], [4 x [3 x i64]], i64, i64, ptr, i32, i32, i32, i32, [2 x [2 x i8]], ptr, ptr, ptr, ptr, ptr, ptr, [88 x i8], [3359 x i8] }

@VP8TopLeftI4 = internal constant [16 x i8] c"\11\15\19\1D\0D\11\15\19\09\0D\11\15\05\09\0D\11", align 16
@VP8Scan = external constant [16 x i16], align 16

; Function Attrs: nounwind uwtable
define hidden i32 @VP8IteratorRotateI4(ptr noundef %0, ptr noundef %1) #0 {
  %3 = alloca i32, align 4
  %4 = alloca ptr, align 8
  %5 = alloca ptr, align 8
  %6 = alloca ptr, align 8
  %7 = alloca ptr, align 8
  %8 = alloca i32, align 4
  %9 = alloca i32, align 4
  store ptr %0, ptr %4, align 8, !tbaa !3
  store ptr %1, ptr %5, align 8, !tbaa !68
  call void @llvm.lifetime.start.p0(i64 8, ptr %6) #6
  %10 = load ptr, ptr %5, align 8, !tbaa !68
  %11 = load ptr, ptr %4, align 8, !tbaa !3
  %12 = getelementptr inbounds nuw %struct.VP8EncIterator, ptr %11, i32 0, i32 13
  %13 = load i32, ptr %12, align 8, !tbaa !92
  %14 = sext i32 %13 to i64
  %15 = getelementptr inbounds [16 x i16], ptr @VP8Scan, i64 0, i64 %14
  %16 = load i16, ptr %15, align 2, !tbaa !98
  %17 = zext i16 %16 to i32
  %18 = sext i32 %17 to i64
  %19 = getelementptr inbounds i8, ptr %10, i64 %18
  store ptr %19, ptr %6, align 8, !tbaa !68
  call void @llvm.lifetime.start.p0(i64 8, ptr %7) #6
  %20 = load ptr, ptr %4, align 8, !tbaa !3
  %21 = getelementptr inbounds nuw %struct.VP8EncIterator, ptr %20, i32 0, i32 12
  %22 = load ptr, ptr %21, align 8, !tbaa !93
  store ptr %22, ptr %7, align 8, !tbaa !68
  call void @llvm.lifetime.start.p0(i64 4, ptr %8) #6
  store i32 0, ptr %8, align 4, !tbaa !7
  br label %23

23:                                               ; preds = %38, %2
  %24 = load i32, ptr %8, align 4, !tbaa !7
  %25 = icmp sle i32 %24, 3
  br i1 %25, label %26, label %41

26:                                               ; preds = %23
  %27 = load ptr, ptr %6, align 8, !tbaa !68
  %28 = load i32, ptr %8, align 4, !tbaa !7
  %29 = add nsw i32 %28, 96
  %30 = sext i32 %29 to i64
  %31 = getelementptr inbounds i8, ptr %27, i64 %30
  %32 = load i8, ptr %31, align 1, !tbaa !47
  %33 = load ptr, ptr %7, align 8, !tbaa !68
  %34 = load i32, ptr %8, align 4, !tbaa !7
  %35 = add nsw i32 -4, %34
  %36 = sext i32 %35 to i64
  %37 = getelementptr inbounds i8, ptr %33, i64 %36
  store i8 %32, ptr %37, align 1, !tbaa !47
  br label %38

38:                                               ; preds = %26
  %39 = load i32, ptr %8, align 4, !tbaa !7
  %40 = add nsw i32 %39, 1
  store i32 %40, ptr %8, align 4, !tbaa !7
  br label %23, !llvm.loop !100

41:                                               ; preds = %23
  %42 = load ptr, ptr %4, align 8, !tbaa !3
  %43 = getelementptr inbounds nuw %struct.VP8EncIterator, ptr %42, i32 0, i32 13
  %44 = load i32, ptr %43, align 8, !tbaa !92
  %45 = and i32 %44, 3
  %46 = icmp ne i32 %45, 3
  br i1 %46, label %47, label %68

47:                                               ; preds = %41
  store i32 0, ptr %8, align 4, !tbaa !7
  br label %48

48:                                               ; preds = %64, %47
  %49 = load i32, ptr %8, align 4, !tbaa !7
  %50 = icmp sle i32 %49, 2
  br i1 %50, label %51, label %67

51:                                               ; preds = %48
  %52 = load ptr, ptr %6, align 8, !tbaa !68
  %53 = load i32, ptr %8, align 4, !tbaa !7
  %54 = sub nsw i32 2, %53
  %55 = mul nsw i32 %54, 32
  %56 = add nsw i32 3, %55
  %57 = sext i32 %56 to i64
  %58 = getelementptr inbounds i8, ptr %52, i64 %57
  %59 = load i8, ptr %58, align 1, !tbaa !47
  %60 = load ptr, ptr %7, align 8, !tbaa !68
  %61 = load i32, ptr %8, align 4, !tbaa !7
  %62 = sext i32 %61 to i64
  %63 = getelementptr inbounds i8, ptr %60, i64 %62
  store i8 %59, ptr %63, align 1, !tbaa !47
  br label %64

64:                                               ; preds = %51
  %65 = load i32, ptr %8, align 4, !tbaa !7
  %66 = add nsw i32 %65, 1
  store i32 %66, ptr %8, align 4, !tbaa !7
  br label %48, !llvm.loop !101

67:                                               ; preds = %48
  br label %87

68:                                               ; preds = %41
  store i32 0, ptr %8, align 4, !tbaa !7
  br label %69

69:                                               ; preds = %83, %68
  %70 = load i32, ptr %8, align 4, !tbaa !7
  %71 = icmp sle i32 %70, 3
  br i1 %71, label %72, label %86

72:                                               ; preds = %69
  %73 = load ptr, ptr %7, align 8, !tbaa !68
  %74 = load i32, ptr %8, align 4, !tbaa !7
  %75 = add nsw i32 %74, 4
  %76 = sext i32 %75 to i64
  %77 = getelementptr inbounds i8, ptr %73, i64 %76
  %78 = load i8, ptr %77, align 1, !tbaa !47
  %79 = load ptr, ptr %7, align 8, !tbaa !68
  %80 = load i32, ptr %8, align 4, !tbaa !7
  %81 = sext i32 %80 to i64
  %82 = getelementptr inbounds i8, ptr %79, i64 %81
  store i8 %78, ptr %82, align 1, !tbaa !47
  br label %83

83:                                               ; preds = %72
  %84 = load i32, ptr %8, align 4, !tbaa !7
  %85 = add nsw i32 %84, 1
  store i32 %85, ptr %8, align 4, !tbaa !7
  br label %69, !llvm.loop !102

86:                                               ; preds = %69
  br label %87

87:                                               ; preds = %86, %67
  %88 = load ptr, ptr %4, align 8, !tbaa !3
  %89 = getelementptr inbounds nuw %struct.VP8EncIterator, ptr %88, i32 0, i32 13
  %90 = load i32, ptr %89, align 8, !tbaa !92
  %91 = add nsw i32 %90, 1
  store i32 %91, ptr %89, align 8, !tbaa !92
  %92 = load ptr, ptr %4, align 8, !tbaa !3
  %93 = getelementptr inbounds nuw %struct.VP8EncIterator, ptr %92, i32 0, i32 13
  %94 = load i32, ptr %93, align 8, !tbaa !92
  %95 = icmp eq i32 %94, 16
  br i1 %95, label %96, label %97

96:                                               ; preds = %87
  store i32 0, ptr %3, align 4
  store i32 1, ptr %9, align 4
  br label %112

97:                                               ; preds = %87
  %98 = load ptr, ptr %4, align 8, !tbaa !3
  %99 = getelementptr inbounds nuw %struct.VP8EncIterator, ptr %98, i32 0, i32 11
  %100 = getelementptr inbounds [37 x i8], ptr %99, i64 0, i64 0
  %101 = load ptr, ptr %4, align 8, !tbaa !3
  %102 = getelementptr inbounds nuw %struct.VP8EncIterator, ptr %101, i32 0, i32 13
  %103 = load i32, ptr %102, align 8, !tbaa !92
  %104 = sext i32 %103 to i64
  %105 = getelementptr inbounds [16 x i8], ptr @VP8TopLeftI4, i64 0, i64 %104
  %106 = load i8, ptr %105, align 1, !tbaa !47
  %107 = zext i8 %106 to i32
  %108 = sext i32 %107 to i64
  %109 = getelementptr inbounds i8, ptr %100, i64 %108
  %110 = load ptr, ptr %4, align 8, !tbaa !3
  %111 = getelementptr inbounds nuw %struct.VP8EncIterator, ptr %110, i32 0, i32 12
  store ptr %109, ptr %111, align 8, !tbaa !93
  store i32 1, ptr %3, align 4
  store i32 1, ptr %9, align 4
  br label %112

112:                                              ; preds = %97, %96
  call void @llvm.lifetime.end.p0(i64 4, ptr %8) #6
  call void @llvm.lifetime.end.p0(i64 8, ptr %7) #6
  call void @llvm.lifetime.end.p0(i64 8, ptr %6) #6
  %113 = load i32, ptr %3, align 4
  ret i32 %113
}