; Function Attrs: nofree norecurse nosync nounwind memory(readwrite, inaccessiblemem: none) uwtable
define hidden range(i32 0, 2) i32 @VP8IteratorRotateI4(ptr noundef %0, ptr noundef readonly captures(none) %1) local_unnamed_addr #5 {
  %3 = getelementptr inbounds nuw i8, ptr %0, i64 128
  %4 = load i32, ptr %3, align 8, !tbaa !87
  %5 = sext i32 %4 to i64
  %6 = getelementptr inbounds [16 x i16], ptr @VP8Scan, i64 0, i64 %5
  %7 = load i16, ptr %6, align 2, !tbaa !93
  %8 = zext i16 %7 to i64
  %9 = getelementptr inbounds nuw i8, ptr %1, i64 %8
  %10 = getelementptr inbounds nuw i8, ptr %0, i64 120
  %11 = load ptr, ptr %10, align 8, !tbaa !88
  br label %12

12:                                               ; preds = %2, %12
  %indvars.iv = phi i64 [ 0, %2 ], [ %indvars.iv.next, %12 ]
  %13 = or disjoint i64 %indvars.iv, 96
  %14 = getelementptr inbounds nuw i8, ptr %9, i64 %13
  %15 = load i8, ptr %14, align 1, !tbaa !44
  %16 = or disjoint i64 %indvars.iv, -4
  %17 = getelementptr inbounds i8, ptr %11, i64 %16
  store i8 %15, ptr %17, align 1, !tbaa !44
  %indvars.iv.next = add nuw nsw i64 %indvars.iv, 1
  %exitcond.not = icmp eq i64 %indvars.iv.next, 4
  br i1 %exitcond.not, label %18, label %12, !llvm.loop !95

18:                                               ; preds = %12
  %19 = load i32, ptr %3, align 8, !tbaa !87
  %20 = and i32 %19, 3
  %.not = icmp eq i32 %20, 3
  br i1 %.not, label %.preheader.preheader, label %.preheader29

.preheader.preheader:                             ; preds = %18
  %scevgep = getelementptr i8, ptr %11, i64 4
  %21 = load i32, ptr %scevgep, align 1, !tbaa !44
  store i32 %21, ptr %11, align 1, !tbaa !44
  br label %.loopexit

.preheader29:                                     ; preds = %18, %.preheader29
  %indvars.iv37 = phi i64 [ %indvars.iv.next38, %.preheader29 ], [ 0, %18 ]
  %22 = shl nuw nsw i64 %indvars.iv37, 5
  %23 = sub nuw nsw i64 67, %22
  %24 = getelementptr inbounds nuw i8, ptr %9, i64 %23
  %25 = load i8, ptr %24, align 1, !tbaa !44
  %26 = getelementptr inbounds nuw i8, ptr %11, i64 %indvars.iv37
  store i8 %25, ptr %26, align 1, !tbaa !44
  %indvars.iv.next38 = add nuw nsw i64 %indvars.iv37, 1
  %exitcond40.not = icmp eq i64 %indvars.iv.next38, 3
  br i1 %exitcond40.not, label %.loopexit, label %.preheader29, !llvm.loop !96

.loopexit:                                        ; preds = %.preheader29, %.preheader.preheader
  %27 = load i32, ptr %3, align 8, !tbaa !87
  %28 = add nsw i32 %27, 1
  store i32 %28, ptr %3, align 8, !tbaa !87
  %29 = icmp eq i32 %28, 16
  br i1 %29, label %37, label %30

30:                                               ; preds = %.loopexit
  %31 = getelementptr inbounds nuw i8, ptr %0, i64 80
  %32 = sext i32 %28 to i64
  %33 = getelementptr inbounds [16 x i8], ptr @VP8TopLeftI4, i64 0, i64 %32
  %34 = load i8, ptr %33, align 1, !tbaa !44
  %35 = zext i8 %34 to i64
  %36 = getelementptr inbounds nuw i8, ptr %31, i64 %35
  store ptr %36, ptr %10, align 8, !tbaa !88
  br label %37

37:                                               ; preds = %.loopexit, %30
  %.027 = phi i32 [ 1, %30 ], [ 0, %.loopexit ]
  ret i32 %.027
}